target datalayout = "e-m:e-p270:32:32-p271:32:32-p272:64:64-i64:64-i128:128-f80:128-n8:16:32:64-S128"
target triple = "x86_64-pc-linux-gnu"

%struct._packet_info = type { ptr, ptr, i32, i32, %struct.nstime_t, %struct.nstime_t, %struct.nstime_t, i8, ptr, ptr, ptr, ptr, %struct._address, %struct._address, %struct._address, %struct._address, %struct._address, %struct._address, i32, ptr, i8, [3 x i8], %struct.anon, i32, i32, i32, i32, ptr, i8, ptr, ptr, i16, i16, i32, i32, i16, i32, i32, ptr, ptr, ptr, i8, i8, i16, i16, i16, i32, i16, i16, ptr, ptr, ptr, ptr, ptr, i32, i32 }
%struct.nstime_t = type { i64, i32 }
%struct._address = type { i32, i32, ptr, ptr }
%struct.anon = type { i8, [3 x i8] }

@hf_do_irp_envelope = internal global i32 0, align 4
@hf_do_irp_version_major = internal global i32 0, align 4
@hf_do_irp_version_minor = internal global i32 0, align 4
@hf_do_irp_flags = internal global i32 0, align 4
@hf_do_irp_version_major_sugg = internal global i32 0, align 4
@hf_do_irp_version_minor_sugg = internal global i32 0, align 4
@hf_do_irp_sessid = internal global i32 0, align 4
@hf_do_irp_reqid = internal global i32 0, align 4
@hf_do_irp_seq = internal global i32 0, align 4
@hf_do_irp_msglen = internal global i32 0, align 4
@ett_do_irp_envelope = internal global i32 0, align 4
@ett_do_irp_envelope_flags = internal global i32 0, align 4
@.str.298 = private unnamed_addr constant [7 x i8] c"DO-IRP\00", align 1
@decode_envelope.envelope_flag_bits = internal constant [4 x ptr] [ptr @hf_do_irp_flag_cp, ptr @hf_do_irp_flag_ec, ptr @hf_do_irp_flag_tc, ptr null], align 16
@.str.376 = private unnamed_addr constant [9 x i8] c"ReqID=%u\00", align 1

; Function Attrs: null_pointer_is_valid sspstrong uwtable
define internal i32 @decode_envelope(ptr noundef %0, ptr noundef %1, ptr noundef %2, ptr noundef %3, ptr noundef %4) #0 {
  %6 = alloca ptr, align 8
  %7 = alloca ptr, align 8
  %8 = alloca ptr, align 8
  %9 = alloca ptr, align 8
  %10 = alloca ptr, align 8
  %11 = alloca i32, align 4
  %12 = alloca ptr, align 8
  %13 = alloca ptr, align 8
  store ptr %0, ptr %6, align 8
  store ptr %1, ptr %7, align 8
  store ptr %2, ptr %8, align 8
  store ptr %3, ptr %9, align 8
  store ptr %4, ptr %10, align 8
  %14 = load ptr, ptr %7, align 8
  %15 = getelementptr inbounds nuw %struct._packet_info, ptr %14, i32 0, i32 1
  %16 = load ptr, ptr %15, align 8
  call void @col_set_str(ptr noundef %16, i32 noundef 35, ptr noundef @.str.298)
  %17 = load ptr, ptr %7, align 8
  %18 = getelementptr inbounds nuw %struct._packet_info, ptr %17, i32 0, i32 1
  %19 = load ptr, ptr %18, align 8
  call void @col_clear(ptr noundef %19, i32 noundef 25)
  call void @llvm.lifetime.start.p0(i64 4, ptr %11) #8
  store i32 0, ptr %11, align 4
  call void @llvm.lifetime.start.p0(i64 8, ptr %12) #8
  %20 = load ptr, ptr %8, align 8
  %21 = load i32, ptr @hf_do_irp_envelope, align 4
  %22 = load ptr, ptr %6, align 8
  %23 = load i32, ptr %11, align 4
  %24 = call ptr @proto_tree_add_item(ptr noundef %20, i32 noundef %21, ptr noundef %22, i32 noundef %23, i32 noundef 20, i32 noundef 0)
  store ptr %24, ptr %12, align 8
  call void @llvm.lifetime.start.p0(i64 8, ptr %13) #8
  %25 = load ptr, ptr %12, align 8
  %26 = load i32, ptr @ett_do_irp_envelope, align 4
  %27 = call ptr @proto_item_add_subtree(ptr noundef %25, i32 noundef %26)
  store ptr %27, ptr %13, align 8
  %28 = load ptr, ptr %13, align 8
  %29 = load i32, ptr @hf_do_irp_version_major, align 4
  %30 = load ptr, ptr %6, align 8
  %31 = load i32, ptr %11, align 4
  %32 = call ptr @proto_tree_add_item(ptr noundef %28, i32 noundef %29, ptr noundef %30, i32 noundef %31, i32 noundef 1, i32 noundef 0)
  %33 = load i32, ptr %11, align 4
  %34 = add i32 %33, 1
  store i32 %34, ptr %11, align 4
  %35 = load ptr, ptr %13, align 8
  %36 = load i32, ptr @hf_do_irp_version_minor, align 4
  %37 = load ptr, ptr %6, align 8
  %38 = load i32, ptr %11, align 4
  %39 = call ptr @proto_tree_add_item(ptr noundef %35, i32 noundef %36, ptr noundef %37, i32 noundef %38, i32 noundef 1, i32 noundef 0)
  %40 = load i32, ptr %11, align 4
  %41 = add i32 %40, 1
  store i32 %41, ptr %11, align 4
  %42 = load ptr, ptr %6, align 8
  %43 = load i32, ptr %11, align 4
  %44 = mul i32 %43, 8
  %45 = add i32 %44, 1
  %46 = call zeroext i8 @tvb_get_bits8(ptr noundef %42, i32 noundef %45, i32 noundef 1)
  %47 = icmp ne i8 %46, 0
  %48 = load ptr, ptr %10, align 8
  %49 = zext i1 %47 to i8
  store i8 %49, ptr %48, align 1
  %50 = load ptr, ptr %13, align 8
  %51 = load ptr, ptr %6, align 8
  %52 = load i32, ptr %11, align 4
  %53 = load i32, ptr @hf_do_irp_flags, align 4
  %54 = load i32, ptr @ett_do_irp_envelope_flags, align 4
  %55 = call ptr @proto_tree_add_bitmask(ptr noundef %50, ptr noundef %51, i32 noundef %52, i32 noundef %53, i32 noundef %54, ptr noundef @decode_envelope.envelope_flag_bits, i32 noundef 0)
  %56 = load ptr, ptr %13, align 8
  %57 = load i32, ptr @hf_do_irp_version_major_sugg, align 4
  %58 = load ptr, ptr %6, align 8
  %59 = load i32, ptr %11, align 4
  %60 = mul i32 %59, 8
  %61 = add i32 %60, 3
  %62 = call ptr @proto_tree_add_bits_item(ptr noundef %56, i32 noundef %57, ptr noundef %58, i32 noundef %61, i32 noundef 5, i32 noundef 0)
  %63 = load i32, ptr %11, align 4
  %64 = add i32 %63, 1
  store i32 %64, ptr %11, align 4
  %65 = load ptr, ptr %13, align 8
  %66 = load i32, ptr @hf_do_irp_version_minor_sugg, align 4
  %67 = load ptr, ptr %6, align 8
  %68 = load i32, ptr %11, align 4
  %69 = call ptr @proto_tree_add_item(ptr noundef %65, i32 noundef %66, ptr noundef %67, i32 noundef %68, i32 noundef 1, i32 noundef 0)
  %70 = load i32, ptr %11, align 4
  %71 = add i32 %70, 1
  store i32 %71, ptr %11, align 4
  %72 = load ptr, ptr %13, align 8
  %73 = load i32, ptr @hf_do_irp_sessid, align 4
  %74 = load ptr, ptr %6, align 8
  %75 = load i32, ptr %11, align 4
  %76 = call ptr @proto_tree_add_item(ptr noundef %72, i32 noundef %73, ptr noundef %74, i32 noundef %75, i32 noundef 4, i32 noundef 0)
  %77 = load i32, ptr %11, align 4
  %78 = add i32 %77, 4
  store i32 %78, ptr %11, align 4
  %79 = load ptr, ptr %6, align 8
  %80 = load i32, ptr %11, align 4
  %81 = call i32 @tvb_get_uint32(ptr noundef %79, i32 noundef %80, i32 noundef 0)
  %82 = load ptr, ptr %9, align 8
  store i32 %81, ptr %82, align 4
  %83 = load ptr, ptr %13, align 8
  %84 = load i32, ptr @hf_do_irp_reqid, align 4
  %85 = load ptr, ptr %6, align 8
  %86 = load i32, ptr %11, align 4
  %87 = call ptr @proto_tree_add_item(ptr noundef %83, i32 noundef %84, ptr noundef %85, i32 noundef %86, i32 noundef 4, i32 noundef 0)
  %88 = load ptr, ptr %7, align 8
  %89 = getelementptr inbounds nuw %struct._packet_info, ptr %88, i32 0, i32 1
  %90 = load ptr, ptr %89, align 8
  %91 = load ptr, ptr %6, align 8
  %92 = load i32, ptr %11, align 4
  %93 = call i32 @tvb_get_uint32(ptr noundef %91, i32 noundef %92, i32 noundef 0)
  call void (ptr, i32, ptr, ...) @col_append_fstr(ptr noundef %90, i32 noundef 25, ptr noundef @.str.376, i32 noundef %93)
  %94 = load i32, ptr %11, align 4
  %95 = add i32 %94, 4
  store i32 %95, ptr %11, align 4
  %96 = load ptr, ptr %13, align 8
  %97 = load i32, ptr @hf_do_irp_seq, align 4
  %98 = load ptr, ptr %6, align 8
  %99 = load i32, ptr %11, align 4
  %100 = call ptr @proto_tree_add_item(ptr noundef %96, i32 noundef %97, ptr noundef %98, i32 noundef %99, i32 noundef 4, i32 noundef 0)
  %101 = load i32, ptr %11, align 4
  %102 = add i32 %101, 4
  store i32 %102, ptr %11, align 4
  %103 = load ptr, ptr %13, align 8
  %104 = load i32, ptr @hf_do_irp_msglen, align 4
  %105 = load ptr, ptr %6, align 8
  %106 = load i32, ptr %11, align 4
  %107 = call ptr @proto_tree_add_item(ptr noundef %103, i32 noundef %104, ptr noundef %105, i32 noundef %106, i32 noundef 4, i32 noundef 0)
  %108 = load i32, ptr %11, align 4
  %109 = add i32 %108, 4
  store i32 %109, ptr %11, align 4
  %110 = load i32, ptr %11, align 4
  call void @llvm.lifetime.end.p0(i64 8, ptr %13) #8
  call void @llvm.lifetime.end.p0(i64 8, ptr %12) #8
  call void @llvm.lifetime.end.p0(i64 4, ptr %11) #8
  ret i32 %110
}