; Function Attrs: null_pointer_is_valid sspstrong uwtable
define internal fastcc void @decode_envelope(ptr noundef %0, ptr noundef readonly captures(none) %1, ptr noundef %2, ptr noundef writeonly captures(none) initializes((0, 4)) %3, ptr noundef writeonly captures(none) initializes((0, 1)) %4) unnamed_addr #0 {
  %6 = getelementptr inbounds nuw i8, ptr %1, i64 8
  %7 = load ptr, ptr %6, align 8
  tail call void @col_set_str(ptr noundef %7, i32 noundef 35, ptr noundef nonnull @.str.298)
  %8 = load ptr, ptr %6, align 8
  tail call void @col_clear(ptr noundef %8, i32 noundef 25)
  %9 = load i32, ptr @hf_do_irp_envelope, align 4
  %10 = tail call ptr @proto_tree_add_item(ptr noundef %2, i32 noundef %9, ptr noundef %0, i32 noundef 0, i32 noundef 20, i32 noundef 0)
  %11 = load i32, ptr @ett_do_irp_envelope, align 4
  %12 = tail call ptr @proto_item_add_subtree(ptr noundef %10, i32 noundef %11)
  %13 = load i32, ptr @hf_do_irp_version_major, align 4
  %14 = tail call ptr @proto_tree_add_item(ptr noundef %12, i32 noundef %13, ptr noundef %0, i32 noundef 0, i32 noundef 1, i32 noundef 0)
  %15 = load i32, ptr @hf_do_irp_version_minor, align 4
  %16 = tail call ptr @proto_tree_add_item(ptr noundef %12, i32 noundef %15, ptr noundef %0, i32 noundef 1, i32 noundef 1, i32 noundef 0)
  %17 = tail call zeroext i8 @tvb_get_bits8(ptr noundef %0, i32 noundef 17, i32 noundef 1)
  %18 = icmp ne i8 %17, 0
  %19 = zext i1 %18 to i8
  store i8 %19, ptr %4, align 1
  %20 = load i32, ptr @hf_do_irp_flags, align 4
  %21 = load i32, ptr @ett_do_irp_envelope_flags, align 4
  %22 = tail call ptr @proto_tree_add_bitmask(ptr noundef %12, ptr noundef %0, i32 noundef 2, i32 noundef %20, i32 noundef %21, ptr noundef nonnull @decode_envelope.envelope_flag_bits, i32 noundef 0)
  %23 = load i32, ptr @hf_do_irp_version_major_sugg, align 4
  %24 = tail call ptr @proto_tree_add_bits_item(ptr noundef %12, i32 noundef %23, ptr noundef %0, i32 noundef 19, i32 noundef 5, i32 noundef 0)
  %25 = load i32, ptr @hf_do_irp_version_minor_sugg, align 4
  %26 = tail call ptr @proto_tree_add_item(ptr noundef %12, i32 noundef %25, ptr noundef %0, i32 noundef 3, i32 noundef 1, i32 noundef 0)
  %27 = load i32, ptr @hf_do_irp_sessid, align 4
  %28 = tail call ptr @proto_tree_add_item(ptr noundef %12, i32 noundef %27, ptr noundef %0, i32 noundef 4, i32 noundef 4, i32 noundef 0)
  %29 = tail call i32 @tvb_get_uint32(ptr noundef %0, i32 noundef 8, i32 noundef 0)
  store i32 %29, ptr %3, align 4
  %30 = load i32, ptr @hf_do_irp_reqid, align 4
  %31 = tail call ptr @proto_tree_add_item(ptr noundef %12, i32 noundef %30, ptr noundef %0, i32 noundef 8, i32 noundef 4, i32 noundef 0)
  %32 = load ptr, ptr %6, align 8
  %33 = tail call i32 @tvb_get_uint32(ptr noundef %0, i32 noundef 8, i32 noundef 0)
  tail call void (ptr, i32, ptr, ...) @col_append_fstr(ptr noundef %32, i32 noundef 25, ptr noundef nonnull @.str.376, i32 noundef %33)
  %34 = load i32, ptr @hf_do_irp_seq, align 4
  %35 = tail call ptr @proto_tree_add_item(ptr noundef %12, i32 noundef %34, ptr noundef %0, i32 noundef 12, i32 noundef 4, i32 noundef 0)
  %36 = load i32, ptr @hf_do_irp_msglen, align 4
  %37 = tail call ptr @proto_tree_add_item(ptr noundef %12, i32 noundef %36, ptr noundef %0, i32 noundef 16, i32 noundef 4, i32 noundef 0)
  ret void
}